; Function Attrs: mustprogress uwtable
define hidden void @_ZNK4cvc58internal7printer4smt211Smt2Printer8toStreamERSoNS0_12NodeTemplateILb0EEE(ptr noundef nonnull readonly align 8 captures(none) dereferenceable(12) %0, ptr noundef nonnull align 8 dereferenceable(8) %1, ptr noundef readonly captures(none) %2) unnamed_addr #3 align 2 personality ptr @__gxx_personality_v0 {
  %4 = alloca %"class.cvc5::internal::NodeTemplate", align 8
  %5 = load ptr, ptr %1, align 8, !tbaa !40
  %6 = getelementptr i8, ptr %5, i64 -24
  %7 = load i64, ptr %6, align 8
  %8 = getelementptr inbounds i8, ptr %1, i64 %7
  %9 = tail call noundef i64 @_ZN4cvc58internal7options7ioutils12getDagThreshERSt8ios_base(ptr noundef nonnull align 8 dereferenceable(216) %8)
  %10 = load ptr, ptr %1, align 8, !tbaa !40
  %11 = getelementptr i8, ptr %10, i64 -24
  %12 = load i64, ptr %11, align 8
  %13 = getelementptr inbounds i8, ptr %1, i64 %12
  %14 = tail call noundef i64 @_ZN4cvc58internal7options7ioutils12getNodeDepthERSt8ios_base(ptr noundef nonnull align 8 dereferenceable(216) %13)
  %15 = trunc i64 %14 to i32
  %16 = load ptr, ptr %2, align 8, !tbaa !3
  store ptr %16, ptr %4, align 8, !tbaa !3
  call void @_ZNK4cvc58internal7printer4smt211Smt2Printer8toStreamERSoNS0_12NodeTemplateILb0EEEim(ptr noundef nonnull align 8 dereferenceable(12) %0, ptr noundef nonnull align 8 dereferenceable(8) %1, ptr noundef nonnull %4, i32 noundef %15, i64 noundef %9)
  ret void
}